; Function Attrs: cold nounwind optsize uwtable
define internal range(i32 -12, 1) i32 @truemotion1_decode_init(ptr noundef %0) #0 {
  %2 = getelementptr inbounds nuw i8, ptr %0, i64 32
  %3 = load ptr, ptr %2, align 8, !tbaa !4
  store ptr %0, ptr %3, align 8, !tbaa !27
  %4 = tail call ptr @av_frame_alloc() #7
  %5 = getelementptr inbounds nuw i8, ptr %3, i64 8
  store ptr %4, ptr %5, align 8, !tbaa !31
  %.not = icmp eq ptr %4, null
  br i1 %.not, label %15, label %6

6:                                                ; preds = %1
  %7 = getelementptr inbounds nuw i8, ptr %3, i64 16552
  %8 = getelementptr inbounds nuw i8, ptr %3, i64 16560
  %9 = load ptr, ptr %3, align 8, !tbaa !27
  %10 = getelementptr inbounds nuw i8, ptr %9, i64 112
  %11 = load i32, ptr %10, align 8, !tbaa !32
  %12 = sext i32 %11 to i64
  %13 = shl nsw i64 %12, 2
  tail call void @av_fast_malloc(ptr noundef nonnull %7, ptr noundef nonnull %8, i64 noundef %13) #7
  %14 = load ptr, ptr %7, align 8, !tbaa !33
  %.not9 = icmp eq ptr %14, null
  %. = select i1 %.not9, i32 -12, i32 0
  br label %15

15:                                               ; preds = %6, %1
  %.0 = phi i32 [ -12, %1 ], [ %., %6 ]
  ret i32 %.0
}